target datalayout = "e-m:e-p270:32:32-p271:32:32-p272:64:64-i64:64-i128:128-f80:128-n8:16:32:64-S128"
target triple = "x86_64-pc-linux-gnu"

%struct.expert_field = type { i32, i32 }
%struct._packet_info = type { ptr, ptr, i32, i32, %struct.nstime_t, %struct.nstime_t, %struct.nstime_t, i8, ptr, ptr, ptr, ptr, %struct._address, %struct._address, %struct._address, %struct._address, %struct._address, %struct._address, i32, ptr, i8, [3 x i8], %struct.anon, i32, i32, i32, i32, ptr, i8, ptr, ptr, i16, i16, i32, i32, i16, i32, i32, ptr, ptr, ptr, i8, i8, i16, i16, i16, i32, i16, i16, ptr, ptr, ptr, ptr, ptr, i32, i32 }
%struct.nstime_t = type { i64, i32 }
%struct._address = type { i32, i32, ptr, ptr }
%struct.anon = type { i8, [3 x i8] }

@hf_lsd_header = internal global i32 0, align 4
@hf_lsd_host = internal global i32 0, align 4
@hf_lsd_port = internal global i32 0, align 4
@.str.4 = private unnamed_addr constant [5 x i8] c"Port\00", align 1
@hf_lsd_infohash = internal global i32 0, align 4
@hf_lsd_cookie = internal global i32 0, align 4
@.str.8 = private unnamed_addr constant [7 x i8] c"cookie\00", align 1
@ett_lsd = internal global i32 0, align 4
@ei_lsd_field = internal global %struct.expert_field zeroinitializer, align 4
@.str.13 = private unnamed_addr constant [4 x i8] c"LSD\00", align 1
@proto_lsd = internal global i32 0, align 4
@.str.18 = private unnamed_addr constant [2 x i8] c":\00", align 1
@.str.19 = private unnamed_addr constant [21 x i8] c"Port value malformed\00", align 1
@.str.20 = private unnamed_addr constant [21 x i8] c"Port field malformed\00", align 1

; Function Attrs: null_pointer_is_valid sspstrong uwtable
define internal i32 @dissect_lsd(ptr noundef %0, ptr noundef %1, ptr noundef %2, ptr noundef %3) #0 {
  %5 = alloca i32, align 4
  %6 = alloca ptr, align 8
  %7 = alloca ptr, align 8
  %8 = alloca ptr, align 8
  %9 = alloca ptr, align 8
  %10 = alloca ptr, align 8
  %11 = alloca ptr, align 8
  %12 = alloca i32, align 4
  %13 = alloca i32, align 4
  %14 = alloca i32, align 4
  %15 = alloca ptr, align 8
  %16 = alloca ptr, align 8
  %17 = alloca i16, align 2
  %18 = alloca i8, align 1
  %19 = alloca i32, align 4
  store ptr %0, ptr %6, align 8
  store ptr %1, ptr %7, align 8
  store ptr %2, ptr %8, align 8
  store ptr %3, ptr %9, align 8
  call void @llvm.lifetime.start.p0(i64 8, ptr %10) #5
  store ptr null, ptr %10, align 8
  call void @llvm.lifetime.start.p0(i64 8, ptr %11) #5
  call void @llvm.lifetime.start.p0(i64 4, ptr %12) #5
  store i32 0, ptr %12, align 4
  call void @llvm.lifetime.start.p0(i64 4, ptr %13) #5
  store i32 0, ptr %13, align 4
  call void @llvm.lifetime.start.p0(i64 4, ptr %14) #5
  call void @llvm.lifetime.start.p0(i64 8, ptr %15) #5
  call void @llvm.lifetime.start.p0(i64 8, ptr %16) #5
  call void @llvm.lifetime.start.p0(i64 2, ptr %17) #5
  call void @llvm.lifetime.start.p0(i64 1, ptr %18) #5
  %20 = load ptr, ptr %6, align 8
  %21 = load i32, ptr %12, align 4
  %22 = call i32 @tvb_find_line_end(ptr noundef %20, i32 noundef %21, i32 noundef -1, ptr noundef %13, i1 noundef zeroext false)
  store i32 %22, ptr %14, align 4
  %23 = load i32, ptr %14, align 4
  %24 = icmp slt i32 %23, 0
  br i1 %24, label %25, label %26

25:                                               ; preds = %4
  store i32 0, ptr %5, align 4
  store i32 1, ptr %19, align 4
  br label %159

26:                                               ; preds = %4
  %27 = load ptr, ptr %7, align 8
  %28 = getelementptr inbounds nuw %struct._packet_info, ptr %27, i32 0, i32 1
  %29 = load ptr, ptr %28, align 8
  call void @col_set_str(ptr noundef %29, i32 noundef 35, ptr noundef @.str.13)
  %30 = load ptr, ptr %7, align 8
  %31 = getelementptr inbounds nuw %struct._packet_info, ptr %30, i32 0, i32 1
  %32 = load ptr, ptr %31, align 8
  call void @col_clear(ptr noundef %32, i32 noundef 25)
  %33 = load ptr, ptr %8, align 8
  %34 = load i32, ptr @proto_lsd, align 4
  %35 = load ptr, ptr %6, align 8
  %36 = call ptr @proto_tree_add_item(ptr noundef %33, i32 noundef %34, ptr noundef %35, i32 noundef 0, i32 noundef -1, i32 noundef 0)
  store ptr %36, ptr %10, align 8
  %37 = load ptr, ptr %10, align 8
  %38 = load i32, ptr @ett_lsd, align 4
  %39 = call ptr @proto_item_add_subtree(ptr noundef %37, i32 noundef %38)
  store ptr %39, ptr %11, align 8
  %40 = load ptr, ptr %11, align 8
  %41 = load i32, ptr @hf_lsd_header, align 4
  %42 = load ptr, ptr %6, align 8
  %43 = load i32, ptr %12, align 4
  %44 = load i32, ptr %14, align 4
  %45 = call ptr @proto_tree_add_item(ptr noundef %40, i32 noundef %41, ptr noundef %42, i32 noundef %43, i32 noundef %44, i32 noundef 0)
  %46 = load i32, ptr %13, align 4
  store i32 %46, ptr %12, align 4
  %47 = load ptr, ptr %11, align 8
  %48 = load i32, ptr @hf_lsd_host, align 4
  %49 = load ptr, ptr %7, align 8
  %50 = load ptr, ptr %6, align 8
  %51 = load i32, ptr %12, align 4
  %52 = call zeroext i1 @parse_string_field(ptr noundef %47, i32 noundef %48, ptr noundef %49, ptr noundef %50, i32 noundef %51, ptr noundef %13, ptr noundef %14)
  br i1 %52, label %57, label %53

53:                                               ; preds = %26
  %54 = load i32, ptr %12, align 4
  %55 = load i32, ptr %14, align 4
  %56 = add i32 %54, %55
  store i32 %56, ptr %5, align 4
  store i32 1, ptr %19, align 4
  br label %159

57:                                               ; preds = %26
  %58 = load i32, ptr %13, align 4
  store i32 %58, ptr %12, align 4
  %59 = load ptr, ptr %6, align 8
  %60 = load i32, ptr %12, align 4
  %61 = call i32 @tvb_find_line_end(ptr noundef %59, i32 noundef %60, i32 noundef -1, ptr noundef %13, i1 noundef zeroext false)
  store i32 %61, ptr %14, align 4
  %62 = load i32, ptr %14, align 4
  %63 = icmp slt i32 %62, 0
  br i1 %63, label %64, label %68

64:                                               ; preds = %57
  %65 = load i32, ptr %12, align 4
  %66 = load i32, ptr %14, align 4
  %67 = add i32 %65, %66
  store i32 %67, ptr %5, align 4
  store i32 1, ptr %19, align 4
  br label %159

68:                                               ; preds = %57
  %69 = load ptr, ptr %7, align 8
  %70 = getelementptr inbounds nuw %struct._packet_info, ptr %69, i32 0, i32 51
  %71 = load ptr, ptr %70, align 8
  %72 = load ptr, ptr %6, align 8
  %73 = load i32, ptr %12, align 4
  %74 = load i32, ptr %14, align 4
  %75 = call ptr @tvb_get_string_enc(ptr noundef %71, ptr noundef %72, i32 noundef %73, i32 noundef %74, i32 noundef 0)
  store ptr %75, ptr %15, align 8
  %76 = load ptr, ptr %15, align 8
  %77 = call i32 @g_ascii_strncasecmp(ptr noundef %76, ptr noundef @.str.4, i64 noundef 4)
  %78 = icmp eq i32 %77, 0
  br i1 %78, label %79, label %105

79:                                               ; preds = %68
  %80 = load ptr, ptr %7, align 8
  %81 = getelementptr inbounds nuw %struct._packet_info, ptr %80, i32 0, i32 51
  %82 = load ptr, ptr %81, align 8
  %83 = load ptr, ptr %15, align 8
  %84 = call ptr @wmem_strsplit(ptr noundef %82, ptr noundef %83, ptr noundef @.str.18, i32 noundef 2)
  store ptr %84, ptr %16, align 8
  %85 = load ptr, ptr %16, align 8
  %86 = getelementptr ptr, ptr %85, i64 1
  %87 = load ptr, ptr %86, align 8
  %88 = call zeroext i1 @ws_strtou16(ptr noundef %87, ptr noundef null, ptr noundef %17)
  %89 = zext i1 %88 to i8
  store i8 %89, ptr %18, align 1
  %90 = load ptr, ptr %11, align 8
  %91 = load i32, ptr @hf_lsd_port, align 4
  %92 = load ptr, ptr %6, align 8
  %93 = load i32, ptr %12, align 4
  %94 = load i32, ptr %14, align 4
  %95 = load i16, ptr %17, align 2
  %96 = zext i16 %95 to i32
  %97 = call ptr @proto_tree_add_uint(ptr noundef %90, i32 noundef %91, ptr noundef %92, i32 noundef %93, i32 noundef %94, i32 noundef %96)
  store ptr %97, ptr %10, align 8
  %98 = load i8, ptr %18, align 1, !range !6, !noundef !7
  %99 = trunc i8 %98 to i1
  br i1 %99, label %104, label %100

100:                                              ; preds = %79
  %101 = load ptr, ptr %7, align 8
  %102 = load ptr, ptr %10, align 8
  %103 = call ptr (ptr, ptr, ptr, ptr, ...) @expert_add_info_format(ptr noundef %101, ptr noundef %102, ptr noundef @ei_lsd_field, ptr noundef @.str.19)
  br label %104

104:                                              ; preds = %100, %79
  br label %114

105:                                              ; preds = %68
  %106 = load ptr, ptr %11, align 8
  %107 = load i32, ptr @hf_lsd_port, align 4
  %108 = load ptr, ptr %6, align 8
  %109 = load i32, ptr %12, align 4
  %110 = call ptr @proto_tree_add_uint(ptr noundef %106, i32 noundef %107, ptr noundef %108, i32 noundef %109, i32 noundef 0, i32 noundef 65535)
  store ptr %110, ptr %10, align 8
  %111 = load ptr, ptr %7, align 8
  %112 = load ptr, ptr %10, align 8
  %113 = call ptr (ptr, ptr, ptr, ptr, ...) @expert_add_info_format(ptr noundef %111, ptr noundef %112, ptr noundef @ei_lsd_field, ptr noundef @.str.20)
  br label %114

114:                                              ; preds = %105, %104
  %115 = load ptr, ptr %10, align 8
  %116 = load i32, ptr %14, align 4
  call void @proto_item_set_len(ptr noundef %115, i32 noundef %116)
  %117 = load i32, ptr %13, align 4
  store i32 %117, ptr %12, align 4
  %118 = load ptr, ptr %11, align 8
  %119 = load i32, ptr @hf_lsd_infohash, align 4
  %120 = load ptr, ptr %7, align 8
  %121 = load ptr, ptr %6, align 8
  %122 = load i32, ptr %12, align 4
  %123 = call zeroext i1 @parse_string_field(ptr noundef %118, i32 noundef %119, ptr noundef %120, ptr noundef %121, i32 noundef %122, ptr noundef %13, ptr noundef %14)
  br i1 %123, label %128, label %124

124:                                              ; preds = %114
  %125 = load i32, ptr %12, align 4
  %126 = load i32, ptr %14, align 4
  %127 = add i32 %125, %126
  store i32 %127, ptr %5, align 4
  store i32 1, ptr %19, align 4
  br label %159

128:                                              ; preds = %114
  %129 = load i32, ptr %13, align 4
  store i32 %129, ptr %12, align 4
  %130 = load ptr, ptr %6, align 8
  %131 = load i32, ptr %12, align 4
  %132 = call i32 @tvb_find_line_end(ptr noundef %130, i32 noundef %131, i32 noundef -1, ptr noundef %13, i1 noundef zeroext false)
  store i32 %132, ptr %14, align 4
  %133 = load i32, ptr %14, align 4
  %134 = icmp slt i32 %133, 0
  br i1 %134, label %135, label %139

135:                                              ; preds = %128
  %136 = load i32, ptr %12, align 4
  %137 = load i32, ptr %14, align 4
  %138 = add i32 %136, %137
  store i32 %138, ptr %5, align 4
  store i32 1, ptr %19, align 4
  br label %159

139:                                              ; preds = %128
  %140 = load ptr, ptr %6, align 8
  %141 = load i32, ptr %12, align 4
  %142 = call i32 @tvb_strncaseeql(ptr noundef %140, i32 noundef %141, ptr noundef @.str.8, i64 noundef 6)
  %143 = icmp eq i32 %142, 0
  br i1 %143, label %144, label %156

144:                                              ; preds = %139
  %145 = load ptr, ptr %11, align 8
  %146 = load i32, ptr @hf_lsd_cookie, align 4
  %147 = load ptr, ptr %7, align 8
  %148 = load ptr, ptr %6, align 8
  %149 = load i32, ptr %12, align 4
  %150 = call zeroext i1 @parse_string_field(ptr noundef %145, i32 noundef %146, ptr noundef %147, ptr noundef %148, i32 noundef %149, ptr noundef %13, ptr noundef %14)
  br i1 %150, label %155, label %151

151:                                              ; preds = %144
  %152 = load i32, ptr %12, align 4
  %153 = load i32, ptr %14, align 4
  %154 = add i32 %152, %153
  store i32 %154, ptr %5, align 4
  store i32 1, ptr %19, align 4
  br label %159

155:                                              ; preds = %144
  br label %156

156:                                              ; preds = %155, %139
  %157 = load ptr, ptr %6, align 8
  %158 = call i32 @tvb_captured_length(ptr noundef %157)
  store i32 %158, ptr %5, align 4
  store i32 1, ptr %19, align 4
  br label %159

159:                                              ; preds = %156, %151, %135, %124, %64, %53, %25
  call void @llvm.lifetime.end.p0(i64 1, ptr %18) #5
  call void @llvm.lifetime.end.p0(i64 2, ptr %17) #5
  call void @llvm.lifetime.end.p0(i64 8, ptr %16) #5
  call void @llvm.lifetime.end.p0(i64 8, ptr %15) #5
  call void @llvm.lifetime.end.p0(i64 4, ptr %14) #5
  call void @llvm.lifetime.end.p0(i64 4, ptr %13) #5
  call void @llvm.lifetime.end.p0(i64 4, ptr %12) #5
  call void @llvm.lifetime.end.p0(i64 8, ptr %11) #5
  call void @llvm.lifetime.end.p0(i64 8, ptr %10) #5
  %160 = load i32, ptr %5, align 4
  ret i32 %160
}