; Function Attrs: null_pointer_is_valid sspstrong uwtable
define internal fastcc i32 @dissect_lsd(ptr noundef %0, ptr noundef %1, ptr noundef %2) unnamed_addr #0 {
  %4 = alloca i32, align 4
  %5 = alloca i32, align 4
  %6 = alloca i16, align 2
  call void @llvm.lifetime.start.p0(i64 4, ptr nonnull %4) #4
  store i32 0, ptr %4, align 4
  call void @llvm.lifetime.start.p0(i64 4, ptr nonnull %5) #4
  call void @llvm.lifetime.start.p0(i64 2, ptr nonnull %6) #4
  %7 = call i32 @tvb_find_line_end(ptr noundef %0, i32 noundef 0, i32 noundef -1, ptr noundef nonnull %4, i1 noundef zeroext false)
  %8 = icmp slt i32 %7, 0
  br i1 %8, label %79, label %9

9:                                                ; preds = %3
  %10 = getelementptr inbounds nuw i8, ptr %1, i64 8
  %11 = load ptr, ptr %10, align 8
  call void @col_set_str(ptr noundef %11, i32 noundef 35, ptr noundef nonnull @.str.13)
  %12 = load ptr, ptr %10, align 8
  call void @col_clear(ptr noundef %12, i32 noundef 25)
  %13 = load i32, ptr @proto_lsd, align 4
  %14 = call ptr @proto_tree_add_item(ptr noundef %2, i32 noundef %13, ptr noundef %0, i32 noundef 0, i32 noundef -1, i32 noundef 0)
  %15 = load i32, ptr @ett_lsd, align 4
  %16 = call ptr @proto_item_add_subtree(ptr noundef %14, i32 noundef %15)
  %17 = load i32, ptr @hf_lsd_header, align 4
  %18 = call ptr @proto_tree_add_item(ptr noundef %16, i32 noundef %17, ptr noundef %0, i32 noundef 0, i32 noundef %7, i32 noundef 0)
  %19 = load i32, ptr %4, align 4
  %20 = load i32, ptr @hf_lsd_host, align 4
  %21 = call fastcc zeroext i1 @parse_string_field(ptr noundef %16, i32 noundef %20, ptr noundef %1, ptr noundef %0, i32 noundef %19, ptr noundef nonnull %4, ptr noundef nonnull %5)
  br i1 %21, label %25, label %22

22:                                               ; preds = %9
  %23 = load i32, ptr %5, align 4
  %24 = add i32 %23, %19
  br label %79

25:                                               ; preds = %9
  %26 = load i32, ptr %4, align 4
  %27 = call i32 @tvb_find_line_end(ptr noundef %0, i32 noundef %26, i32 noundef -1, ptr noundef nonnull %4, i1 noundef zeroext false)
  store i32 %27, ptr %5, align 4
  %28 = icmp slt i32 %27, 0
  br i1 %28, label %29, label %31

29:                                               ; preds = %25
  %30 = add i32 %27, %26
  br label %79

31:                                               ; preds = %25
  %32 = getelementptr inbounds nuw i8, ptr %1, i64 408
  %33 = load ptr, ptr %32, align 8
  %34 = call ptr @tvb_get_string_enc(ptr noundef %33, ptr noundef %0, i32 noundef %26, i32 noundef %27, i32 noundef 0)
  %35 = call i32 @g_ascii_strncasecmp(ptr noundef %34, ptr noundef nonnull @.str.4, i64 noundef 4)
  %36 = icmp eq i32 %35, 0
  br i1 %36, label %37, label %50

37:                                               ; preds = %31
  %38 = load ptr, ptr %32, align 8
  %39 = call ptr @wmem_strsplit(ptr noundef %38, ptr noundef %34, ptr noundef nonnull @.str.18, i32 noundef 2)
  %40 = getelementptr i8, ptr %39, i64 8
  %41 = load ptr, ptr %40, align 8
  %42 = call zeroext i1 @ws_strtou16(ptr noundef %41, ptr noundef null, ptr noundef nonnull %6)
  %43 = load i32, ptr @hf_lsd_port, align 4
  %44 = load i32, ptr %5, align 4
  %45 = load i16, ptr %6, align 2
  %46 = zext i16 %45 to i32
  %47 = call ptr @proto_tree_add_uint(ptr noundef %16, i32 noundef %43, ptr noundef %0, i32 noundef %26, i32 noundef %44, i32 noundef %46)
  br i1 %42, label %54, label %48

48:                                               ; preds = %37
  %49 = call ptr (ptr, ptr, ptr, ptr, ...) @expert_add_info_format(ptr noundef %1, ptr noundef %47, ptr noundef nonnull @ei_lsd_field, ptr noundef nonnull @.str.19)
  br label %54

50:                                               ; preds = %31
  %51 = load i32, ptr @hf_lsd_port, align 4
  %52 = call ptr @proto_tree_add_uint(ptr noundef %16, i32 noundef %51, ptr noundef %0, i32 noundef %26, i32 noundef 0, i32 noundef 65535)
  %53 = call ptr (ptr, ptr, ptr, ptr, ...) @expert_add_info_format(ptr noundef %1, ptr noundef %52, ptr noundef nonnull @ei_lsd_field, ptr noundef nonnull @.str.20)
  br label %54

54:                                               ; preds = %37, %48, %50
  %55 = phi i32 [ %44, %37 ], [ %44, %48 ], [ %27, %50 ]
  %.053 = phi ptr [ %47, %37 ], [ %47, %48 ], [ %52, %50 ]
  call void @proto_item_set_len(ptr noundef %.053, i32 noundef %55)
  %56 = load i32, ptr %4, align 4
  %57 = load i32, ptr @hf_lsd_infohash, align 4
  %58 = call fastcc zeroext i1 @parse_string_field(ptr noundef %16, i32 noundef %57, ptr noundef %1, ptr noundef %0, i32 noundef %56, ptr noundef nonnull %4, ptr noundef nonnull %5)
  br i1 %58, label %62, label %59

59:                                               ; preds = %54
  %60 = load i32, ptr %5, align 4
  %61 = add i32 %60, %56
  br label %79

62:                                               ; preds = %54
  %63 = load i32, ptr %4, align 4
  %64 = call i32 @tvb_find_line_end(ptr noundef %0, i32 noundef %63, i32 noundef -1, ptr noundef nonnull %4, i1 noundef zeroext false)
  %65 = icmp slt i32 %64, 0
  br i1 %65, label %66, label %68

66:                                               ; preds = %62
  %67 = add i32 %64, %63
  br label %79

68:                                               ; preds = %62
  %69 = call i32 @tvb_strncaseeql(ptr noundef %0, i32 noundef %63, ptr noundef nonnull @.str.8, i64 noundef 6)
  %70 = icmp eq i32 %69, 0
  br i1 %70, label %71, label %77

71:                                               ; preds = %68
  %72 = load i32, ptr @hf_lsd_cookie, align 4
  %73 = call fastcc zeroext i1 @parse_string_field(ptr noundef %16, i32 noundef %72, ptr noundef %1, ptr noundef %0, i32 noundef %63, ptr noundef nonnull %4, ptr noundef nonnull %5)
  br i1 %73, label %77, label %74

74:                                               ; preds = %71
  %75 = load i32, ptr %5, align 4
  %76 = add i32 %75, %63
  br label %79

77:                                               ; preds = %71, %68
  %78 = call i32 @tvb_captured_length(ptr noundef %0)
  br label %79

79:                                               ; preds = %3, %77, %74, %66, %59, %29, %22
  %.0 = phi i32 [ %30, %29 ], [ %67, %66 ], [ %78, %77 ], [ %76, %74 ], [ %61, %59 ], [ %24, %22 ], [ 0, %3 ]
  call void @llvm.lifetime.end.p0(i64 2, ptr nonnull %6) #4
  call void @llvm.lifetime.end.p0(i64 4, ptr nonnull %5) #4
  call void @llvm.lifetime.end.p0(i64 4, ptr nonnull %4) #4
  ret i32 %.0
}